target datalayout = "e-m:e-p270:32:32-p271:32:32-p272:64:64-i64:64-i128:128-f80:128-n8:16:32:64-S128"
target triple = "x86_64-pc-linux-gnu"

%struct._asn1_ctx_t = type { i32, i32, i8, ptr, ptr, ptr, ptr, ptr, %struct.anon, %struct.anon.2, %struct.anon.3, ptr }
%struct.anon = type { i32, i8, i8, i8, ptr, ptr, i32, i32, ptr, ptr, ptr, %union.anon }
%union.anon = type { %struct.anon.0 }
%struct.anon.0 = type { ptr }
%struct.anon.2 = type { ptr, ptr, ptr }
%struct.anon.3 = type { i32, i8, ptr, i32, i32, ptr, ptr, ptr, %union.anon.4 }
%union.anon.4 = type { %struct.anon.5 }
%struct.anon.5 = type { ptr }
%struct._packet_info = type { ptr, ptr, i32, i32, %struct.nstime_t, %struct.nstime_t, %struct.nstime_t, i8, ptr, ptr, ptr, ptr, %struct._address, %struct._address, %struct._address, %struct._address, %struct._address, %struct._address, i32, ptr, i8, [3 x i8], %struct.anon.7, i32, i32, i32, i32, ptr, i8, ptr, ptr, i16, i16, i32, i32, i16, i32, i32, ptr, ptr, ptr, i8, i8, i16, i16, i16, i32, i16, i16, ptr, ptr, ptr, ptr, ptr, i32, i32 }
%struct.nstime_t = type { i64, i32 }
%struct._address = type { i32, i32, ptr, ptr }
%struct.anon.7 = type { i8, [3 x i8] }
%struct.xnap_private_data = type { ptr, i32, i32, i32, i32 }

@hf_xnap_MN_to_SN_Container_PDU = internal global i32 0, align 4
@ett_xnap_container = internal global i32 0, align 4
@proto_xnap = internal global i32 0, align 4
@xnap_dissect_target_ng_ran_container_as = internal global i32 0, align 4

; Function Attrs: null_pointer_is_valid sspstrong uwtable
define internal ptr @xnap_get_private_data(ptr noundef %0) #0 {
  %2 = alloca ptr, align 8
  %3 = alloca ptr, align 8
  store ptr %0, ptr %2, align 8
  call void @llvm.lifetime.start.p0(i64 8, ptr %3) #9
  %4 = load ptr, ptr %2, align 8
  %5 = getelementptr inbounds nuw %struct._packet_info, ptr %4, i32 0, i32 51
  %6 = load ptr, ptr %5, align 8
  %7 = load ptr, ptr %2, align 8
  %8 = load i32, ptr @proto_xnap, align 4
  %9 = call ptr @p_get_proto_data(ptr noundef %6, ptr noundef %7, i32 noundef %8, i32 noundef 0)
  store ptr %9, ptr %3, align 8
  %10 = load ptr, ptr %3, align 8
  %11 = icmp ne ptr %10, null
  br i1 %11, label %23, label %12

12:                                               ; preds = %1
  %13 = load ptr, ptr %2, align 8
  %14 = getelementptr inbounds nuw %struct._packet_info, ptr %13, i32 0, i32 51
  %15 = load ptr, ptr %14, align 8
  %16 = call noalias ptr @wmem_alloc0(ptr noundef %15, i64 noundef 24) #10
  store ptr %16, ptr %3, align 8
  %17 = load ptr, ptr %2, align 8
  %18 = getelementptr inbounds nuw %struct._packet_info, ptr %17, i32 0, i32 51
  %19 = load ptr, ptr %18, align 8
  %20 = load ptr, ptr %2, align 8
  %21 = load i32, ptr @proto_xnap, align 4
  %22 = load ptr, ptr %3, align 8
  call void @p_add_proto_data(ptr noundef %19, ptr noundef %20, i32 noundef %21, i32 noundef 0, ptr noundef %22)
  br label %23

23:                                               ; preds = %12, %1
  %24 = load ptr, ptr %3, align 8
  call void @llvm.lifetime.end.p0(i64 8, ptr %3) #9
  ret ptr %24
}

; Function Attrs: null_pointer_is_valid sspstrong uwtable
define internal i32 @dissect_xnap_MN_to_SN_Container(ptr noundef %0, i32 noundef %1, ptr noundef %2, ptr noundef %3, i32 noundef %4) #0 {
  %6 = alloca ptr, align 8
  %7 = alloca i32, align 4
  %8 = alloca ptr, align 8
  %9 = alloca ptr, align 8
  %10 = alloca i32, align 4
  %11 = alloca ptr, align 8
  %12 = alloca ptr, align 8
  %13 = alloca ptr, align 8
  %14 = alloca i32, align 4
  store ptr %0, ptr %6, align 8
  store i32 %1, ptr %7, align 4
  store ptr %2, ptr %8, align 8
  store ptr %3, ptr %9, align 8
  store i32 %4, ptr %10, align 4
  call void @llvm.lifetime.start.p0(i64 8, ptr %11) #9
  store ptr null, ptr %11, align 8
  %15 = load ptr, ptr %6, align 8
  %16 = load i32, ptr %7, align 4
  %17 = load ptr, ptr %8, align 8
  %18 = load ptr, ptr %9, align 8
  %19 = load i32, ptr %10, align 4
  %20 = call i32 @dissect_per_octet_string(ptr noundef %15, i32 noundef %16, ptr noundef %17, ptr noundef %18, i32 noundef %19, i32 noundef -1, i32 noundef -1, i1 noundef zeroext false, ptr noundef %11)
  store i32 %20, ptr %7, align 4
  %21 = load ptr, ptr %11, align 8
  %22 = icmp ne ptr %21, null
  br i1 %22, label %23, label %156

23:                                               ; preds = %5
  call void @llvm.lifetime.start.p0(i64 8, ptr %12) #9
  call void @llvm.lifetime.start.p0(i64 8, ptr %13) #9
  %24 = load ptr, ptr %8, align 8
  %25 = getelementptr inbounds nuw %struct._asn1_ctx_t, ptr %24, i32 0, i32 3
  %26 = load ptr, ptr %25, align 8
  %27 = call ptr @xnap_get_private_data(ptr noundef %26)
  store ptr %27, ptr %13, align 8
  call void @llvm.lifetime.start.p0(i64 4, ptr %14) #9
  %28 = load ptr, ptr %8, align 8
  %29 = getelementptr inbounds nuw %struct._asn1_ctx_t, ptr %28, i32 0, i32 3
  %30 = load ptr, ptr %29, align 8
  %31 = getelementptr inbounds nuw %struct._packet_info, ptr %30, i32 0, i32 17
  %32 = load ptr, ptr %8, align 8
  %33 = getelementptr inbounds nuw %struct._asn1_ctx_t, ptr %32, i32 0, i32 3
  %34 = load ptr, ptr %33, align 8
  %35 = getelementptr inbounds nuw %struct._packet_info, ptr %34, i32 0, i32 25
  %36 = load i32, ptr %35, align 8
  %37 = load ptr, ptr %8, align 8
  %38 = getelementptr inbounds nuw %struct._asn1_ctx_t, ptr %37, i32 0, i32 3
  %39 = load ptr, ptr %38, align 8
  %40 = call i32 @xnap_get_ranmode_id(ptr noundef %31, i32 noundef %36, ptr noundef %39)
  store i32 %40, ptr %14, align 4
  %41 = load ptr, ptr %8, align 8
  %42 = getelementptr inbounds nuw %struct._asn1_ctx_t, ptr %41, i32 0, i32 4
  %43 = load ptr, ptr %42, align 8
  %44 = load i32, ptr @ett_xnap_container, align 4
  %45 = call ptr @proto_item_add_subtree(ptr noundef %43, i32 noundef %44)
  store ptr %45, ptr %12, align 8
  %46 = load ptr, ptr %13, align 8
  %47 = getelementptr inbounds nuw %struct.xnap_private_data, ptr %46, i32 0, i32 2
  %48 = load i32, ptr %47, align 4
  %49 = icmp eq i32 %48, 7
  br i1 %49, label %50, label %55

50:                                               ; preds = %23
  %51 = load ptr, ptr %13, align 8
  %52 = getelementptr inbounds nuw %struct.xnap_private_data, ptr %51, i32 0, i32 1
  %53 = load i32, ptr %52, align 8
  %54 = icmp eq i32 %53, 0
  br i1 %54, label %85, label %55

55:                                               ; preds = %50, %23
  %56 = load ptr, ptr %13, align 8
  %57 = getelementptr inbounds nuw %struct.xnap_private_data, ptr %56, i32 0, i32 2
  %58 = load i32, ptr %57, align 4
  %59 = icmp eq i32 %58, 9
  br i1 %59, label %60, label %65

60:                                               ; preds = %55
  %61 = load ptr, ptr %13, align 8
  %62 = getelementptr inbounds nuw %struct.xnap_private_data, ptr %61, i32 0, i32 1
  %63 = load i32, ptr %62, align 8
  %64 = icmp eq i32 %63, 0
  br i1 %64, label %85, label %65

65:                                               ; preds = %60, %55
  %66 = load ptr, ptr %13, align 8
  %67 = getelementptr inbounds nuw %struct.xnap_private_data, ptr %66, i32 0, i32 2
  %68 = load i32, ptr %67, align 4
  %69 = icmp eq i32 %68, 10
  br i1 %69, label %70, label %75

70:                                               ; preds = %65
  %71 = load ptr, ptr %13, align 8
  %72 = getelementptr inbounds nuw %struct.xnap_private_data, ptr %71, i32 0, i32 1
  %73 = load i32, ptr %72, align 8
  %74 = icmp eq i32 %73, 2
  br i1 %74, label %85, label %75

75:                                               ; preds = %70, %65
  %76 = load ptr, ptr %13, align 8
  %77 = getelementptr inbounds nuw %struct.xnap_private_data, ptr %76, i32 0, i32 2
  %78 = load i32, ptr %77, align 4
  %79 = icmp eq i32 %78, 11
  br i1 %79, label %80, label %92

80:                                               ; preds = %75
  %81 = load ptr, ptr %13, align 8
  %82 = getelementptr inbounds nuw %struct.xnap_private_data, ptr %81, i32 0, i32 1
  %83 = load i32, ptr %82, align 8
  %84 = icmp eq i32 %83, 0
  br i1 %84, label %85, label %92

85:                                               ; preds = %80, %70, %60, %50
  %86 = load ptr, ptr %11, align 8
  %87 = load ptr, ptr %8, align 8
  %88 = getelementptr inbounds nuw %struct._asn1_ctx_t, ptr %87, i32 0, i32 3
  %89 = load ptr, ptr %88, align 8
  %90 = load ptr, ptr %12, align 8
  %91 = call i32 @dissect_nr_rrc_CG_ConfigInfo_PDU(ptr noundef %86, ptr noundef %89, ptr noundef %90, ptr noundef null)
  br label %155

92:                                               ; preds = %80, %75
  %93 = load ptr, ptr %13, align 8
  %94 = getelementptr inbounds nuw %struct.xnap_private_data, ptr %93, i32 0, i32 2
  %95 = load i32, ptr %94, align 4
  %96 = icmp eq i32 %95, 10
  br i1 %96, label %97, label %136

97:                                               ; preds = %92
  %98 = load ptr, ptr %13, align 8
  %99 = getelementptr inbounds nuw %struct.xnap_private_data, ptr %98, i32 0, i32 1
  %100 = load i32, ptr %99, align 8
  %101 = icmp eq i32 %100, 1
  br i1 %101, label %102, label %136

102:                                              ; preds = %97
  %103 = load i32, ptr @xnap_dissect_target_ng_ran_container_as, align 4
  %104 = icmp eq i32 %103, 0
  br i1 %104, label %105, label %108

105:                                              ; preds = %102
  %106 = load i32, ptr %14, align 4
  %107 = icmp eq i32 %106, 0
  br i1 %107, label %111, label %108

108:                                              ; preds = %105, %102
  %109 = load i32, ptr @xnap_dissect_target_ng_ran_container_as, align 4
  %110 = icmp eq i32 %109, 1
  br i1 %110, label %111, label %118

111:                                              ; preds = %108, %105
  %112 = load ptr, ptr %11, align 8
  %113 = load ptr, ptr %8, align 8
  %114 = getelementptr inbounds nuw %struct._asn1_ctx_t, ptr %113, i32 0, i32 3
  %115 = load ptr, ptr %114, align 8
  %116 = load ptr, ptr %12, align 8
  %117 = call i32 @dissect_nr_rrc_RRCReconfigurationComplete_PDU(ptr noundef %112, ptr noundef %115, ptr noundef %116, ptr noundef null)
  br label %135

118:                                              ; preds = %108
  %119 = load i32, ptr @xnap_dissect_target_ng_ran_container_as, align 4
  %120 = icmp eq i32 %119, 0
  br i1 %120, label %121, label %124

121:                                              ; preds = %118
  %122 = load i32, ptr %14, align 4
  %123 = icmp eq i32 %122, 1
  br i1 %123, label %127, label %124

124:                                              ; preds = %121, %118
  %125 = load i32, ptr @xnap_dissect_target_ng_ran_container_as, align 4
  %126 = icmp eq i32 %125, 2
  br i1 %126, label %127, label %134

127:                                              ; preds = %124, %121
  %128 = load ptr, ptr %11, align 8
  %129 = load ptr, ptr %8, align 8
  %130 = getelementptr inbounds nuw %struct._asn1_ctx_t, ptr %129, i32 0, i32 3
  %131 = load ptr, ptr %130, align 8
  %132 = load ptr, ptr %12, align 8
  %133 = call i32 @dissect_lte_rrc_RRCConnectionReconfigurationComplete_PDU(ptr noundef %128, ptr noundef %131, ptr noundef %132, ptr noundef null)
  br label %134

134:                                              ; preds = %127, %124
  br label %135

135:                                              ; preds = %134, %111
  br label %154

136:                                              ; preds = %97, %92
  %137 = load ptr, ptr %13, align 8
  %138 = getelementptr inbounds nuw %struct.xnap_private_data, ptr %137, i32 0, i32 2
  %139 = load i32, ptr %138, align 4
  %140 = icmp eq i32 %139, 14
  br i1 %140, label %141, label %153

141:                                              ; preds = %136
  %142 = load ptr, ptr %13, align 8
  %143 = getelementptr inbounds nuw %struct.xnap_private_data, ptr %142, i32 0, i32 1
  %144 = load i32, ptr %143, align 8
  %145 = icmp eq i32 %144, 1
  br i1 %145, label %146, label %153

146:                                              ; preds = %141
  %147 = load ptr, ptr %11, align 8
  %148 = load ptr, ptr %8, align 8
  %149 = getelementptr inbounds nuw %struct._asn1_ctx_t, ptr %148, i32 0, i32 3
  %150 = load ptr, ptr %149, align 8
  %151 = load ptr, ptr %12, align 8
  %152 = call i32 @dissect_nr_rrc_RRCReconfigurationComplete_PDU(ptr noundef %147, ptr noundef %150, ptr noundef %151, ptr noundef null)
  br label %153

153:                                              ; preds = %146, %141, %136
  br label %154

154:                                              ; preds = %153, %135
  br label %155

155:                                              ; preds = %154, %85
  call void @llvm.lifetime.end.p0(i64 4, ptr %14) #9
  call void @llvm.lifetime.end.p0(i64 8, ptr %13) #9
  call void @llvm.lifetime.end.p0(i64 8, ptr %12) #9
  br label %156

156:                                              ; preds = %155, %5
  %157 = load i32, ptr %7, align 4
  call void @llvm.lifetime.end.p0(i64 8, ptr %11) #9
  ret i32 %157
}

; Function Attrs: null_pointer_is_valid sspstrong uwtable
define internal i32 @dissect_MN_to_SN_Container_PDU(ptr noundef %0, ptr noundef %1, ptr noundef %2, ptr noundef %3) #0 {
  %5 = alloca ptr, align 8
  %6 = alloca ptr, align 8
  %7 = alloca ptr, align 8
  %8 = alloca ptr, align 8
  %9 = alloca i32, align 4
  %10 = alloca %struct._asn1_ctx_t, align 8
  store ptr %0, ptr %5, align 8
  store ptr %1, ptr %6, align 8
  store ptr %2, ptr %7, align 8
  store ptr %3, ptr %8, align 8
  call void @llvm.lifetime.start.p0(i64 4, ptr %9) #9
  store i32 0, ptr %9, align 4
  call void @llvm.lifetime.start.p0(i64 208, ptr %10) #9
  %11 = load ptr, ptr %6, align 8
  call void @asn1_ctx_init(ptr noundef %10, i32 noundef 1, i1 noundef zeroext true, ptr noundef %11)
  %12 = load ptr, ptr %5, align 8
  %13 = load i32, ptr %9, align 4
  %14 = load ptr, ptr %7, align 8
  %15 = load i32, ptr @hf_xnap_MN_to_SN_Container_PDU, align 4
  %16 = call i32 @dissect_xnap_MN_to_SN_Container(ptr noundef %12, i32 noundef %13, ptr noundef %10, ptr noundef %14, i32 noundef %15)
  store i32 %16, ptr %9, align 4
  %17 = load i32, ptr %9, align 4
  %18 = add i32 %17, 7
  store i32 %18, ptr %9, align 4
  %19 = load i32, ptr %9, align 4
  %20 = ashr i32 %19, 3
  store i32 %20, ptr %9, align 4
  %21 = load i32, ptr %9, align 4
  call void @llvm.lifetime.end.p0(i64 208, ptr %10) #9
  call void @llvm.lifetime.end.p0(i64 4, ptr %9) #9
  ret i32 %21
}