; Function Attrs: null_pointer_is_valid sspstrong uwtable
define internal range(i32 -268435456, 268435456) i32 @dissect_MN_to_SN_Container_PDU(ptr noundef %0, ptr noundef %1, ptr noundef %2, ptr readnone captures(none) %3) #0 {
  %5 = alloca ptr, align 8
  %6 = alloca %struct._asn1_ctx_t, align 8
  call void @llvm.lifetime.start.p0(i64 208, ptr nonnull %6) #9
  call void @asn1_ctx_init(ptr noundef nonnull %6, i32 noundef 1, i1 noundef zeroext true, ptr noundef %1)
  %7 = load i32, ptr @hf_xnap_MN_to_SN_Container_PDU, align 4
  call void @llvm.lifetime.start.p0(i64 8, ptr nonnull %5) #9
  store ptr null, ptr %5, align 8
  %8 = call i32 @dissect_per_octet_string(ptr noundef %0, i32 noundef 0, ptr noundef nonnull %6, ptr noundef %2, i32 noundef %7, i32 noundef -1, i32 noundef -1, i1 noundef zeroext false, ptr noundef nonnull %5)
  %9 = load ptr, ptr %5, align 8
  %.not.i = icmp eq ptr %9, null
  br i1 %.not.i, label %dissect_xnap_MN_to_SN_Container.exit, label %10

10:                                               ; preds = %4
  %11 = getelementptr inbounds nuw i8, ptr %6, i64 16
  %12 = load ptr, ptr %11, align 8
  %13 = getelementptr inbounds nuw i8, ptr %12, i64 408
  %14 = load ptr, ptr %13, align 8
  %15 = load i32, ptr @proto_xnap, align 4
  %16 = call ptr @p_get_proto_data(ptr noundef %14, ptr noundef %12, i32 noundef %15, i32 noundef 0)
  %.not.i.i = icmp eq ptr %16, null
  br i1 %.not.i.i, label %17, label %xnap_get_private_data.exit.i

17:                                               ; preds = %10
  %18 = load ptr, ptr %13, align 8
  %19 = call noalias dereferenceable_or_null(24) ptr @wmem_alloc0(ptr noundef %18, i64 noundef 24) #10
  %20 = load ptr, ptr %13, align 8
  %21 = load i32, ptr @proto_xnap, align 4
  call void @p_add_proto_data(ptr noundef %20, ptr noundef %12, i32 noundef %21, i32 noundef 0, ptr noundef %19)
  br label %xnap_get_private_data.exit.i

xnap_get_private_data.exit.i:                     ; preds = %17, %10
  %.0.i.i = phi ptr [ %16, %10 ], [ %19, %17 ]
  %22 = load ptr, ptr %11, align 8
  %23 = getelementptr inbounds nuw i8, ptr %22, i64 232
  %24 = getelementptr inbounds nuw i8, ptr %22, i64 288
  %25 = load i32, ptr %24, align 8
  %26 = call fastcc i32 @xnap_get_ranmode_id(ptr noundef nonnull %23, i32 noundef %25, ptr noundef %22)
  %27 = getelementptr inbounds nuw i8, ptr %6, i64 24
  %28 = load ptr, ptr %27, align 8
  %29 = load i32, ptr @ett_xnap_container, align 4
  %30 = call ptr @proto_item_add_subtree(ptr noundef %28, i32 noundef %29)
  %31 = getelementptr inbounds nuw i8, ptr %.0.i.i, i64 12
  %32 = load i32, ptr %31, align 4
  switch i32 %32, label %dissect_xnap_MN_to_SN_Container.exit [
    i32 7, label %33
    i32 9, label %37
    i32 10, label %41
    i32 11, label %44
    i32 14, label %68
  ]

33:                                               ; preds = %xnap_get_private_data.exit.i
  %34 = getelementptr inbounds nuw i8, ptr %.0.i.i, i64 8
  %35 = load i32, ptr %34, align 8
  %36 = icmp eq i32 %35, 0
  br i1 %36, label %48, label %dissect_xnap_MN_to_SN_Container.exit

37:                                               ; preds = %xnap_get_private_data.exit.i
  %38 = getelementptr inbounds nuw i8, ptr %.0.i.i, i64 8
  %39 = load i32, ptr %38, align 8
  %40 = icmp eq i32 %39, 0
  br i1 %40, label %48, label %dissect_xnap_MN_to_SN_Container.exit

41:                                               ; preds = %xnap_get_private_data.exit.i
  %42 = getelementptr inbounds nuw i8, ptr %.0.i.i, i64 8
  %43 = load i32, ptr %42, align 8
  switch i32 %43, label %dissect_xnap_MN_to_SN_Container.exit [
    i32 2, label %48
    i32 1, label %52
  ]

44:                                               ; preds = %xnap_get_private_data.exit.i
  %45 = getelementptr inbounds nuw i8, ptr %.0.i.i, i64 8
  %46 = load i32, ptr %45, align 8
  %47 = icmp eq i32 %46, 0
  br i1 %47, label %48, label %dissect_xnap_MN_to_SN_Container.exit

48:                                               ; preds = %44, %41, %37, %33
  %49 = load ptr, ptr %5, align 8
  %50 = load ptr, ptr %11, align 8
  %51 = call i32 @dissect_nr_rrc_CG_ConfigInfo_PDU(ptr noundef %49, ptr noundef %50, ptr noundef %30, ptr noundef null)
  br label %dissect_xnap_MN_to_SN_Container.exit

52:                                               ; preds = %41
  %53 = load i32, ptr @xnap_dissect_target_ng_ran_container_as, align 4
  %54 = icmp eq i32 %53, 0
  %55 = icmp eq i32 %26, 0
  %or.cond.i = select i1 %54, i1 %55, i1 false
  %56 = icmp eq i32 %53, 1
  %or.cond3.i = or i1 %56, %or.cond.i
  br i1 %or.cond3.i, label %57, label %61

57:                                               ; preds = %52
  %58 = load ptr, ptr %5, align 8
  %59 = load ptr, ptr %11, align 8
  %60 = call i32 @dissect_nr_rrc_RRCReconfigurationComplete_PDU(ptr noundef %58, ptr noundef %59, ptr noundef %30, ptr noundef null)
  br label %dissect_xnap_MN_to_SN_Container.exit

61:                                               ; preds = %52
  %62 = icmp eq i32 %26, 1
  %or.cond5.i = select i1 %54, i1 %62, i1 false
  %63 = icmp eq i32 %53, 2
  %or.cond7.i = or i1 %63, %or.cond5.i
  br i1 %or.cond7.i, label %64, label %dissect_xnap_MN_to_SN_Container.exit

64:                                               ; preds = %61
  %65 = load ptr, ptr %5, align 8
  %66 = load ptr, ptr %11, align 8
  %67 = call i32 @dissect_lte_rrc_RRCConnectionReconfigurationComplete_PDU(ptr noundef %65, ptr noundef %66, ptr noundef %30, ptr noundef null)
  br label %dissect_xnap_MN_to_SN_Container.exit

68:                                               ; preds = %xnap_get_private_data.exit.i
  %69 = getelementptr inbounds nuw i8, ptr %.0.i.i, i64 8
  %70 = load i32, ptr %69, align 8
  %71 = icmp eq i32 %70, 1
  br i1 %71, label %72, label %dissect_xnap_MN_to_SN_Container.exit

72:                                               ; preds = %68
  %73 = load ptr, ptr %5, align 8
  %74 = load ptr, ptr %11, align 8
  %75 = call i32 @dissect_nr_rrc_RRCReconfigurationComplete_PDU(ptr noundef %73, ptr noundef %74, ptr noundef %30, ptr noundef null)
  br label %dissect_xnap_MN_to_SN_Container.exit

dissect_xnap_MN_to_SN_Container.exit:             ; preds = %4, %xnap_get_private_data.exit.i, %33, %37, %41, %44, %48, %57, %61, %64, %68, %72
  call void @llvm.lifetime.end.p0(i64 8, ptr nonnull %5) #9
  %76 = add i32 %8, 7
  %77 = ashr i32 %76, 3
  call void @llvm.lifetime.end.p0(i64 208, ptr nonnull %6) #9
  ret i32 %77
}